; Function Attrs: mustprogress nounwind uwtable
define void @_ZN6icu_778RBBINode12NRDeleteNodeEPS0_(ptr noundef %0) local_unnamed_addr #0 align 2 {
  %2 = icmp eq ptr %0, null
  br i1 %2, label %.loopexit, label %3

3:                                                ; preds = %1
  %4 = getelementptr inbounds nuw i8, ptr %0, i64 8
  %5 = load ptr, ptr %4, align 8, !tbaa !40
  %.not = icmp eq ptr %0, %5
  br i1 %.not, label %.loopexit, label %.lr.ph

.lr.ph:                                           ; preds = %3, %43
  %.037 = phi ptr [ %.1, %43 ], [ %0, %3 ]
  %6 = getelementptr inbounds nuw i8, ptr %.037, i64 16
  %7 = load ptr, ptr %6, align 8, !tbaa !39
  %8 = icmp eq ptr %7, null
  br i1 %8, label %9, label %13

9:                                                ; preds = %.lr.ph
  %10 = getelementptr inbounds nuw i8, ptr %.037, i64 24
  %11 = load ptr, ptr %10, align 8, !tbaa !41
  %12 = icmp eq ptr %11, null
  br i1 %12, label %15, label %13

13:                                               ; preds = %9, %.lr.ph
  %14 = load i32, ptr %.037, align 8, !tbaa !18
  switch i32 %14, label %29 [
    i32 2, label %15
    i32 0, label %15
  ]

15:                                               ; preds = %13, %13, %9
  %16 = getelementptr inbounds nuw i8, ptr %.037, i64 8
  %17 = load ptr, ptr %16, align 8, !tbaa !40
  %.not36 = icmp eq ptr %17, null
  br i1 %.not36, label %28, label %18

18:                                               ; preds = %15
  %19 = getelementptr inbounds nuw i8, ptr %17, i64 16
  %20 = load ptr, ptr %19, align 8, !tbaa !39
  %21 = icmp eq ptr %20, %.037
  br i1 %21, label %22, label %23

22:                                               ; preds = %18
  store ptr null, ptr %19, align 8, !tbaa !39
  br label %28

23:                                               ; preds = %18
  %24 = getelementptr inbounds nuw i8, ptr %17, i64 24
  %25 = load ptr, ptr %24, align 8, !tbaa !41
  %26 = icmp eq ptr %25, %.037
  br i1 %26, label %27, label %28

27:                                               ; preds = %23
  store ptr null, ptr %24, align 8, !tbaa !41
  br label %28

28:                                               ; preds = %15, %23, %27, %22
  tail call void @_ZN6icu_778RBBINodeD1Ev(ptr noundef nonnull align 8 dereferenceable(160) %.037) #12
  tail call void @_ZN6icu_777UMemorydlEPv(ptr noundef nonnull %.037) #12
  br label %43

29:                                               ; preds = %13
  br i1 %8, label %35, label %30

30:                                               ; preds = %29
  %31 = getelementptr inbounds nuw i8, ptr %7, i64 8
  %32 = load ptr, ptr %31, align 8, !tbaa !40
  %33 = icmp eq ptr %32, null
  br i1 %33, label %34, label %43

34:                                               ; preds = %30
  store ptr %.037, ptr %31, align 8, !tbaa !40
  br label %43

35:                                               ; preds = %29
  %36 = getelementptr inbounds nuw i8, ptr %.037, i64 24
  %37 = load ptr, ptr %36, align 8, !tbaa !41
  %.not35 = icmp eq ptr %37, null
  br i1 %.not35, label %43, label %38

38:                                               ; preds = %35
  %39 = getelementptr inbounds nuw i8, ptr %37, i64 8
  %40 = load ptr, ptr %39, align 8, !tbaa !40
  %41 = icmp eq ptr %40, null
  br i1 %41, label %42, label %43

42:                                               ; preds = %38
  store ptr %.037, ptr %39, align 8, !tbaa !40
  br label %43

43:                                               ; preds = %34, %30, %38, %42, %35, %28
  %.1 = phi ptr [ %17, %28 ], [ %7, %34 ], [ %7, %30 ], [ %37, %42 ], [ %37, %38 ], [ %.037, %35 ]
  %44 = icmp ne ptr %.1, %5
  %45 = icmp ne ptr %.1, null
  %46 = and i1 %44, %45
  br i1 %46, label %.lr.ph, label %.loopexit, !llvm.loop !42

.loopexit:                                        ; preds = %43, %3, %1
  ret void
}